target datalayout = "e-m:e-p270:32:32-p271:32:32-p272:64:64-i64:64-i128:128-f80:128-n8:16:32:64-S128"
target triple = "x86_64-pc-linux-gnu"

%struct.evp_rand_ctx_st = type { ptr, ptr, ptr, %struct.CRYPTO_REF_COUNT, ptr }
%struct.CRYPTO_REF_COUNT = type { i32 }
%struct.FAKE_RAND = type { ptr, i32, ptr, ptr }

@.str = private unnamed_addr constant [39 x i8] c"../openssl/test/testutil/fake_random.c\00", align 1
@.str.1 = private unnamed_addr constant [72 x i8] c"OSSL_PROVIDER_add_builtin(libctx, \22fake-rand\22, fake_rand_provider_init)\00", align 1
@.str.2 = private unnamed_addr constant [10 x i8] c"fake-rand\00", align 1
@.str.3 = private unnamed_addr constant [53 x i8] c"RAND_set_DRBG_type(libctx, \22fake\22, NULL, NULL, NULL)\00", align 1
@.str.4 = private unnamed_addr constant [5 x i8] c"fake\00", align 1
@.str.5 = private unnamed_addr constant [51 x i8] c"p = OSSL_PROVIDER_try_load(libctx, \22fake-rand\22, 1)\00", align 1
@.str.6 = private unnamed_addr constant [48 x i8] c"check_rng(RAND_get0_primary(libctx), \22primary\22)\00", align 1
@.str.7 = private unnamed_addr constant [8 x i8] c"primary\00", align 1
@.str.8 = private unnamed_addr constant [48 x i8] c"check_rng(RAND_get0_private(libctx), \22private\22)\00", align 1
@.str.9 = private unnamed_addr constant [8 x i8] c"private\00", align 1
@.str.10 = private unnamed_addr constant [46 x i8] c"check_rng(RAND_get0_public(libctx), \22public\22)\00", align 1
@.str.11 = private unnamed_addr constant [7 x i8] c"public\00", align 1
@.str.20 = private unnamed_addr constant [4 x i8] c"rng\00", align 1
@.str.21 = private unnamed_addr constant [11 x i8] c"random: %s\00", align 1

; Function Attrs: nounwind uwtable
define internal i32 @check_rng(ptr noundef %0, ptr noundef %1) #0 {
  %3 = alloca i32, align 4
  %4 = alloca ptr, align 8
  %5 = alloca ptr, align 8
  %6 = alloca ptr, align 8
  %7 = alloca i32, align 4
  store ptr %0, ptr %4, align 8, !tbaa !17
  store ptr %1, ptr %5, align 8, !tbaa !19
  call void @llvm.lifetime.start.p0(i64 8, ptr %6) #4
  %8 = load ptr, ptr %4, align 8, !tbaa !17
  %9 = call i32 @test_ptr(ptr noundef @.str, i32 noundef 178, ptr noundef @.str.20, ptr noundef %8)
  %10 = icmp ne i32 %9, 0
  br i1 %10, label %13, label %11

11:                                               ; preds = %2
  %12 = load ptr, ptr %5, align 8, !tbaa !19
  call void (ptr, i32, ptr, ...) @test_info(ptr noundef @.str, i32 noundef 179, ptr noundef @.str.21, ptr noundef %12)
  store i32 0, ptr %3, align 4
  store i32 1, ptr %7, align 4
  br label %23

13:                                               ; preds = %2
  %14 = load ptr, ptr %4, align 8, !tbaa !17
  %15 = getelementptr inbounds nuw %struct.evp_rand_ctx_st, ptr %14, i32 0, i32 1
  %16 = load ptr, ptr %15, align 8, !tbaa !21
  store ptr %16, ptr %6, align 8, !tbaa !16
  %17 = load ptr, ptr %5, align 8, !tbaa !19
  %18 = load ptr, ptr %6, align 8, !tbaa !16
  %19 = getelementptr inbounds nuw %struct.FAKE_RAND, ptr %18, i32 0, i32 2
  store ptr %17, ptr %19, align 8, !tbaa !25
  %20 = load ptr, ptr %4, align 8, !tbaa !17
  %21 = load ptr, ptr %6, align 8, !tbaa !16
  %22 = getelementptr inbounds nuw %struct.FAKE_RAND, ptr %21, i32 0, i32 3
  store ptr %20, ptr %22, align 8, !tbaa !28
  store i32 1, ptr %3, align 4
  store i32 1, ptr %7, align 4
  br label %23

23:                                               ; preds = %13, %11
  call void @llvm.lifetime.end.p0(i64 8, ptr %6) #4
  %24 = load i32, ptr %3, align 4
  ret i32 %24
}

; Function Attrs: nounwind uwtable
define ptr @fake_rand_start(ptr noundef %0) #0 {
  %2 = alloca ptr, align 8
  %3 = alloca ptr, align 8
  %4 = alloca ptr, align 8
  %5 = alloca i32, align 4
  store ptr %0, ptr %3, align 8, !tbaa !3
  call void @llvm.lifetime.start.p0(i64 8, ptr %4) #4
  %6 = load ptr, ptr %3, align 8, !tbaa !3
  %7 = call i32 @OSSL_PROVIDER_add_builtin(ptr noundef %6, ptr noundef @.str.2, ptr noundef @fake_rand_provider_init)
  %8 = icmp ne i32 %7, 0
  %9 = zext i1 %8 to i32
  %10 = call i32 @test_true(ptr noundef @.str, i32 noundef 193, ptr noundef @.str.1, i32 noundef %9)
  %11 = icmp ne i32 %10, 0
  br i1 %11, label %12, label %24

12:                                               ; preds = %1
  %13 = load ptr, ptr %3, align 8, !tbaa !3
  %14 = call i32 @RAND_set_DRBG_type(ptr noundef %13, ptr noundef @.str.4, ptr noundef null, ptr noundef null, ptr noundef null)
  %15 = icmp ne i32 %14, 0
  %16 = zext i1 %15 to i32
  %17 = call i32 @test_true(ptr noundef @.str, i32 noundef 194, ptr noundef @.str.3, i32 noundef %16)
  %18 = icmp ne i32 %17, 0
  br i1 %18, label %19, label %24

19:                                               ; preds = %12
  %20 = load ptr, ptr %3, align 8, !tbaa !3
  %21 = call ptr @OSSL_PROVIDER_try_load(ptr noundef %20, ptr noundef @.str.2, i32 noundef 1)
  store ptr %21, ptr %4, align 8, !tbaa !8
  %22 = call i32 @test_ptr(ptr noundef @.str, i32 noundef 195, ptr noundef @.str.5, ptr noundef %21)
  %23 = icmp ne i32 %22, 0
  br i1 %23, label %25, label %24

24:                                               ; preds = %19, %12, %1
  store ptr null, ptr %2, align 8
  store i32 1, ptr %5, align 4
  br label %54

25:                                               ; preds = %19
  %26 = load ptr, ptr %3, align 8, !tbaa !3
  %27 = call ptr @RAND_get0_primary(ptr noundef %26)
  %28 = call i32 @check_rng(ptr noundef %27, ptr noundef @.str.7)
  %29 = icmp ne i32 %28, 0
  %30 = zext i1 %29 to i32
  %31 = call i32 @test_true(ptr noundef @.str, i32 noundef 199, ptr noundef @.str.6, i32 noundef %30)
  %32 = icmp ne i32 %31, 0
  br i1 %32, label %33, label %49

33:                                               ; preds = %25
  %34 = load ptr, ptr %3, align 8, !tbaa !3
  %35 = call ptr @RAND_get0_private(ptr noundef %34)
  %36 = call i32 @check_rng(ptr noundef %35, ptr noundef @.str.9)
  %37 = icmp ne i32 %36, 0
  %38 = zext i1 %37 to i32
  %39 = call i32 @test_true(ptr noundef @.str, i32 noundef 200, ptr noundef @.str.8, i32 noundef %38)
  %40 = icmp ne i32 %39, 0
  br i1 %40, label %41, label %49

41:                                               ; preds = %33
  %42 = load ptr, ptr %3, align 8, !tbaa !3
  %43 = call ptr @RAND_get0_public(ptr noundef %42)
  %44 = call i32 @check_rng(ptr noundef %43, ptr noundef @.str.11)
  %45 = icmp ne i32 %44, 0
  %46 = zext i1 %45 to i32
  %47 = call i32 @test_true(ptr noundef @.str, i32 noundef 201, ptr noundef @.str.10, i32 noundef %46)
  %48 = icmp ne i32 %47, 0
  br i1 %48, label %52, label %49

49:                                               ; preds = %41, %33, %25
  %50 = load ptr, ptr %4, align 8, !tbaa !8
  %51 = call i32 @OSSL_PROVIDER_unload(ptr noundef %50)
  store ptr null, ptr %2, align 8
  store i32 1, ptr %5, align 4
  br label %54

52:                                               ; preds = %41
  %53 = load ptr, ptr %4, align 8, !tbaa !8
  store ptr %53, ptr %2, align 8
  store i32 1, ptr %5, align 4
  br label %54

54:                                               ; preds = %52, %49, %24
  call void @llvm.lifetime.end.p0(i64 8, ptr %4) #4
  %55 = load ptr, ptr %2, align 8
  ret ptr %55
}