; Function Attrs: nounwind uwtable
define noundef ptr @fake_rand_start(ptr noundef %0) local_unnamed_addr #0 {
  %2 = tail call i32 @OSSL_PROVIDER_add_builtin(ptr noundef %0, ptr noundef nonnull @.str.2, ptr noundef nonnull @fake_rand_provider_init) #8
  %3 = icmp ne i32 %2, 0
  %4 = zext i1 %3 to i32
  %5 = tail call i32 @test_true(ptr noundef nonnull @.str, i32 noundef 193, ptr noundef nonnull @.str.1, i32 noundef %4) #8
  %.not = icmp eq i32 %5, 0
  br i1 %.not, label %46, label %6

6:                                                ; preds = %1
  %7 = tail call i32 @RAND_set_DRBG_type(ptr noundef %0, ptr noundef nonnull @.str.4, ptr noundef null, ptr noundef null, ptr noundef null) #8
  %8 = icmp ne i32 %7, 0
  %9 = zext i1 %8 to i32
  %10 = tail call i32 @test_true(ptr noundef nonnull @.str, i32 noundef 194, ptr noundef nonnull @.str.3, i32 noundef %9) #8
  %.not9 = icmp eq i32 %10, 0
  br i1 %.not9, label %46, label %11

11:                                               ; preds = %6
  %12 = tail call ptr @OSSL_PROVIDER_try_load(ptr noundef %0, ptr noundef nonnull @.str.2, i32 noundef 1) #8
  %13 = tail call i32 @test_ptr(ptr noundef nonnull @.str, i32 noundef 195, ptr noundef nonnull @.str.5, ptr noundef %12) #8
  %.not10 = icmp eq i32 %13, 0
  br i1 %.not10, label %46, label %14

14:                                               ; preds = %11
  %15 = tail call ptr @RAND_get0_primary(ptr noundef %0) #8
  %16 = tail call i32 @test_ptr(ptr noundef nonnull @.str, i32 noundef 178, ptr noundef nonnull @.str.20, ptr noundef %15) #8
  %.not.i = icmp eq i32 %16, 0
  br i1 %.not.i, label %17, label %18

17:                                               ; preds = %14
  tail call void (ptr, i32, ptr, ...) @test_info(ptr noundef nonnull @.str, i32 noundef 179, ptr noundef nonnull @.str.21, ptr noundef nonnull @.str.7) #8
  br label %check_rng.exit

18:                                               ; preds = %14
  %19 = getelementptr inbounds nuw i8, ptr %15, i64 8
  %20 = load ptr, ptr %19, align 8, !tbaa !3
  %21 = getelementptr inbounds nuw i8, ptr %20, i64 16
  store ptr @.str.7, ptr %21, align 8, !tbaa !11
  %22 = getelementptr inbounds nuw i8, ptr %20, i64 24
  store ptr %15, ptr %22, align 8, !tbaa !15
  br label %check_rng.exit

check_rng.exit:                                   ; preds = %17, %18
  %.0.i = phi i32 [ 1, %18 ], [ 0, %17 ]
  %23 = tail call i32 @test_true(ptr noundef nonnull @.str, i32 noundef 199, ptr noundef nonnull @.str.6, i32 noundef %.0.i) #8
  %.not11 = icmp eq i32 %23, 0
  br i1 %.not11, label %44, label %24

24:                                               ; preds = %check_rng.exit
  %25 = tail call ptr @RAND_get0_private(ptr noundef %0) #8
  %26 = tail call i32 @test_ptr(ptr noundef nonnull @.str, i32 noundef 178, ptr noundef nonnull @.str.20, ptr noundef %25) #8
  %.not.i14 = icmp eq i32 %26, 0
  br i1 %.not.i14, label %27, label %28

27:                                               ; preds = %24
  tail call void (ptr, i32, ptr, ...) @test_info(ptr noundef nonnull @.str, i32 noundef 179, ptr noundef nonnull @.str.21, ptr noundef nonnull @.str.9) #8
  br label %check_rng.exit16

28:                                               ; preds = %24
  %29 = getelementptr inbounds nuw i8, ptr %25, i64 8
  %30 = load ptr, ptr %29, align 8, !tbaa !3
  %31 = getelementptr inbounds nuw i8, ptr %30, i64 16
  store ptr @.str.9, ptr %31, align 8, !tbaa !11
  %32 = getelementptr inbounds nuw i8, ptr %30, i64 24
  store ptr %25, ptr %32, align 8, !tbaa !15
  br label %check_rng.exit16

check_rng.exit16:                                 ; preds = %27, %28
  %.0.i15 = phi i32 [ 1, %28 ], [ 0, %27 ]
  %33 = tail call i32 @test_true(ptr noundef nonnull @.str, i32 noundef 200, ptr noundef nonnull @.str.8, i32 noundef %.0.i15) #8
  %.not12 = icmp eq i32 %33, 0
  br i1 %.not12, label %44, label %34

34:                                               ; preds = %check_rng.exit16
  %35 = tail call ptr @RAND_get0_public(ptr noundef %0) #8
  %36 = tail call i32 @test_ptr(ptr noundef nonnull @.str, i32 noundef 178, ptr noundef nonnull @.str.20, ptr noundef %35) #8
  %.not.i17 = icmp eq i32 %36, 0
  br i1 %.not.i17, label %37, label %38

37:                                               ; preds = %34
  tail call void (ptr, i32, ptr, ...) @test_info(ptr noundef nonnull @.str, i32 noundef 179, ptr noundef nonnull @.str.21, ptr noundef nonnull @.str.11) #8
  br label %check_rng.exit19

38:                                               ; preds = %34
  %39 = getelementptr inbounds nuw i8, ptr %35, i64 8
  %40 = load ptr, ptr %39, align 8, !tbaa !3
  %41 = getelementptr inbounds nuw i8, ptr %40, i64 16
  store ptr @.str.11, ptr %41, align 8, !tbaa !11
  %42 = getelementptr inbounds nuw i8, ptr %40, i64 24
  store ptr %35, ptr %42, align 8, !tbaa !15
  br label %check_rng.exit19

check_rng.exit19:                                 ; preds = %37, %38
  %.0.i18 = phi i32 [ 1, %38 ], [ 0, %37 ]
  %43 = tail call i32 @test_true(ptr noundef nonnull @.str, i32 noundef 201, ptr noundef nonnull @.str.10, i32 noundef %.0.i18) #8
  %.not13 = icmp eq i32 %43, 0
  br i1 %.not13, label %44, label %46

44:                                               ; preds = %check_rng.exit19, %check_rng.exit16, %check_rng.exit
  %45 = tail call i32 @OSSL_PROVIDER_unload(ptr noundef %12) #8
  br label %46

46:                                               ; preds = %check_rng.exit19, %1, %6, %11, %44
  %.0 = phi ptr [ null, %44 ], [ null, %11 ], [ null, %6 ], [ null, %1 ], [ %12, %check_rng.exit19 ]
  ret ptr %.0
}